target datalayout = "e-m:e-p270:32:32-p271:32:32-p272:64:64-i64:64-i128:128-f80:128-n8:16:32:64-S128"
target triple = "x86_64-pc-linux-gnu"

%struct.PaAlsaStream = type { %struct.PaUtilStreamRepresentation, %struct.PaUtilCpuLoadMeasurer, %struct.PaUtilBufferProcessor, %struct.PaUnixThread, i64, i64, i32, i32, i32, i32, ptr, i32, i32, i32, i32, %struct.PaUnixMutex, i32, double, double, %struct.PaAlsaStreamComponent, %struct.PaAlsaStreamComponent }
%struct.PaUtilStreamRepresentation = type { i64, ptr, ptr, ptr, ptr, ptr, %struct.PaStreamInfo }
%struct.PaStreamInfo = type { i32, double, double, double }
%struct.PaUtilCpuLoadMeasurer = type { double, double, double }
%struct.PaUtilBufferProcessor = type { i64, i64, i32, i32, i32, i32, i64, i32, i32, i32, i32, ptr, ptr, i32, i32, i32, i32, ptr, ptr, i64, i64, ptr, ptr, i64, ptr, ptr, i64, ptr, i64, i32, [2 x i64], [2 x ptr], i32, [2 x i64], [2 x ptr], %struct.PaUtilTriangularDitherGenerator, double, ptr, ptr }
%struct.PaUtilTriangularDitherGenerator = type { i32, i32, i32 }
%struct.PaUnixThread = type { i64, i32, i32, i32, %struct.PaUnixMutex, %union.pthread_cond_t, i32, i32 }
%union.pthread_cond_t = type { %struct.__pthread_cond_s }
%struct.__pthread_cond_s = type { %union.__atomic_wide_counter, %union.__atomic_wide_counter, [2 x i32], [2 x i32], i32, i32, [2 x i32] }
%union.__atomic_wide_counter = type { i64 }
%struct.PaUnixMutex = type { %union.pthread_mutex_t }
%union.pthread_mutex_t = type { %struct.__pthread_mutex_s }
%struct.__pthread_mutex_s = type { i32, i32, i32, i32, i32, i16, i16, %struct.__pthread_internal_list }
%struct.__pthread_internal_list = type { ptr, ptr }
%struct.PaAlsaStreamComponent = type { i64, i32, i32, i32, i32, i32, ptr, i32, i32, i32, i32, ptr, i64, i64, i32, i32, i32, ptr, i64, i32, ptr }

@paUtilErr_ = internal global i32 0, align 4
@alsa_snd_pcm_avail_update = internal global ptr null, align 8
@alsa_snd_strerror = internal global ptr null, align 8
@paUnixMainThread = external global i64, align 8
@.str.186 = private unnamed_addr constant [180 x i8] c"Expression 'framesAvail' failed in 'generated/home/dtcxzyw/WorkSpace/Projects/compilers/llvm-opt-benchmark/bench/portaudio/portaudio/src/hostapi/alsa/pa_linux_alsa.c', line: 3666\0A\00", align 1
@.str.224 = private unnamed_addr constant [202 x i8] c"Expression 'PaAlsaStream_HandleXrun( stream )' failed in 'generated/home/dtcxzyw/WorkSpace/Projects/compilers/llvm-opt-benchmark/bench/portaudio/portaudio/src/hostapi/alsa/pa_linux_alsa.c', line: 4581\0A\00", align 1
@.str.226 = private unnamed_addr constant [186 x i8] c"Expression 'paInputOverflowed' failed in 'generated/home/dtcxzyw/WorkSpace/Projects/compilers/llvm-opt-benchmark/bench/portaudio/portaudio/src/hostapi/alsa/pa_linux_alsa.c', line: 4584\0A\00", align 1

; Function Attrs: inlinehint nounwind willreturn memory(none) uwtable
define available_externally i32 @pthread_equal(i64 noundef %0, i64 noundef %1) #8 {
  %3 = alloca i64, align 8
  %4 = alloca i64, align 8
  store i64 %0, ptr %3, align 8, !tbaa !37
  store i64 %1, ptr %4, align 8, !tbaa !37
  %5 = load i64, ptr %3, align 8, !tbaa !37
  %6 = load i64, ptr %4, align 8, !tbaa !37
  %7 = icmp eq i64 %5, %6
  %8 = zext i1 %7 to i32
  ret i32 %8
}

; Function Attrs: nounwind uwtable
define internal i32 @PaAlsaStreamComponent_GetAvailableFrames(ptr noundef %0, ptr noundef %1, ptr noundef %2) #0 {
  %4 = alloca i32, align 4
  %5 = alloca ptr, align 8
  %6 = alloca ptr, align 8
  %7 = alloca ptr, align 8
  %8 = alloca i32, align 4
  %9 = alloca i64, align 8
  %10 = alloca i32, align 4
  %11 = alloca i32, align 4
  store ptr %0, ptr %5, align 8, !tbaa !32
  store ptr %1, ptr %6, align 8, !tbaa !206
  store ptr %2, ptr %7, align 8, !tbaa !122
  call void @llvm.lifetime.start.p0(i64 4, ptr %8) #17
  store i32 0, ptr %8, align 4, !tbaa !8
  call void @llvm.lifetime.start.p0(i64 8, ptr %9) #17
  %12 = load ptr, ptr @alsa_snd_pcm_avail_update, align 8, !tbaa !32
  %13 = load ptr, ptr %5, align 8, !tbaa !32
  %14 = getelementptr inbounds nuw %struct.PaAlsaStreamComponent, ptr %13, i32 0, i32 11
  %15 = load ptr, ptr %14, align 8, !tbaa !179
  %16 = call i64 %12(ptr noundef %15)
  store i64 %16, ptr %9, align 8, !tbaa !37
  %17 = load ptr, ptr %7, align 8, !tbaa !122
  store i32 0, ptr %17, align 4, !tbaa !8
  %18 = load i64, ptr %9, align 8, !tbaa !37
  %19 = icmp eq i64 -32, %18
  br i1 %19, label %20, label %22

20:                                               ; preds = %3
  %21 = load ptr, ptr %7, align 8, !tbaa !122
  store i32 1, ptr %21, align 4, !tbaa !8
  store i64 0, ptr %9, align 8, !tbaa !37
  br label %49

22:                                               ; preds = %3
  br label %23

23:                                               ; preds = %22
  call void @llvm.lifetime.start.p0(i64 4, ptr %10) #17
  %24 = load i64, ptr %9, align 8, !tbaa !37
  %25 = trunc i64 %24 to i32
  store i32 %25, ptr %10, align 4, !tbaa !8
  %26 = icmp slt i32 %25, 0
  %27 = zext i1 %26 to i32
  %28 = sext i32 %27 to i64
  %29 = call i64 @llvm.expect.i64(i64 %28, i64 0)
  %30 = icmp ne i64 %29, 0
  br i1 %30, label %31, label %43

31:                                               ; preds = %23
  %32 = call i64 @pthread_self() #20
  %33 = load i64, ptr @paUnixMainThread, align 8, !tbaa !37
  %34 = call i32 @pthread_equal(i64 noundef %32, i64 noundef %33) #20
  %35 = icmp ne i32 %34, 0
  br i1 %35, label %36, label %42

36:                                               ; preds = %31
  %37 = load i32, ptr %10, align 4, !tbaa !8
  %38 = sext i32 %37 to i64
  %39 = load ptr, ptr @alsa_snd_strerror, align 8, !tbaa !32
  %40 = load i32, ptr %10, align 4, !tbaa !8
  %41 = call ptr %39(i32 noundef %40)
  call void @PaUtil_SetLastHostErrorInfo(i32 noundef 8, i64 noundef %38, ptr noundef %41)
  br label %42

42:                                               ; preds = %36, %31
  call void (ptr, ...) @PaUtil_DebugPrint(ptr noundef @.str.186)
  store i32 -9999, ptr %8, align 4, !tbaa !8
  store i32 4, ptr %11, align 4
  br label %44

43:                                               ; preds = %23
  store i32 0, ptr %11, align 4
  br label %44

44:                                               ; preds = %42, %43
  call void @llvm.lifetime.end.p0(i64 4, ptr %10) #17
  %45 = load i32, ptr %11, align 4
  switch i32 %45, label %54 [
    i32 0, label %46
    i32 4, label %52
  ]

46:                                               ; preds = %44
  br label %47

47:                                               ; preds = %46
  br label %48

48:                                               ; preds = %47
  br label %49

49:                                               ; preds = %48, %20
  %50 = load i64, ptr %9, align 8, !tbaa !37
  %51 = load ptr, ptr %6, align 8, !tbaa !206
  store i64 %50, ptr %51, align 8, !tbaa !37
  br label %52

52:                                               ; preds = %49, %44
  %53 = load i32, ptr %8, align 4, !tbaa !8
  store i32 %53, ptr %4, align 4
  store i32 1, ptr %11, align 4
  br label %54

54:                                               ; preds = %52, %44
  call void @llvm.lifetime.end.p0(i64 8, ptr %9) #17
  call void @llvm.lifetime.end.p0(i64 4, ptr %8) #17
  %55 = load i32, ptr %4, align 4
  ret i32 %55
}

; Function Attrs: nounwind uwtable
define internal i64 @GetStreamReadAvailable(ptr noundef %0) #0 {
  %2 = alloca i64, align 8
  %3 = alloca ptr, align 8
  %4 = alloca i32, align 4
  %5 = alloca ptr, align 8
  %6 = alloca i64, align 8
  %7 = alloca i32, align 4
  %8 = alloca i32, align 4
  store ptr %0, ptr %3, align 8, !tbaa !32
  call void @llvm.lifetime.start.p0(i64 4, ptr %4) #17
  store i32 0, ptr %4, align 4, !tbaa !8
  call void @llvm.lifetime.start.p0(i64 8, ptr %5) #17
  %9 = load ptr, ptr %3, align 8, !tbaa !32
  store ptr %9, ptr %5, align 8, !tbaa !38
  call void @llvm.lifetime.start.p0(i64 8, ptr %6) #17
  call void @llvm.lifetime.start.p0(i64 4, ptr %7) #17
  br label %10

10:                                               ; preds = %1
  %11 = load ptr, ptr %5, align 8, !tbaa !38
  %12 = getelementptr inbounds nuw %struct.PaAlsaStream, ptr %11, i32 0, i32 19
  %13 = call i32 @PaAlsaStreamComponent_GetAvailableFrames(ptr noundef %12, ptr noundef %6, ptr noundef %7)
  store i32 %13, ptr @paUtilErr_, align 4, !tbaa !8
  %14 = icmp slt i32 %13, 0
  %15 = zext i1 %14 to i32
  %16 = sext i32 %15 to i64
  %17 = call i64 @llvm.expect.i64(i64 %16, i64 0)
  %18 = icmp ne i64 %17, 0
  br i1 %18, label %19, label %21

19:                                               ; preds = %10
  call void (ptr, ...) @PaUtil_DebugPrint(ptr noundef @.str.223)
  %20 = load i32, ptr @paUtilErr_, align 4, !tbaa !8
  store i32 %20, ptr %4, align 4, !tbaa !8
  br label %68

21:                                               ; preds = %10
  br label %22

22:                                               ; preds = %21
  br label %23

23:                                               ; preds = %22
  %24 = load i32, ptr %7, align 4, !tbaa !8
  %25 = icmp ne i32 %24, 0
  br i1 %25, label %26, label %66

26:                                               ; preds = %23
  br label %27

27:                                               ; preds = %26
  %28 = load ptr, ptr %5, align 8, !tbaa !38
  %29 = call i32 @PaAlsaStream_HandleXrun(ptr noundef %28)
  store i32 %29, ptr @paUtilErr_, align 4, !tbaa !8
  %30 = icmp slt i32 %29, 0
  %31 = zext i1 %30 to i32
  %32 = sext i32 %31 to i64
  %33 = call i64 @llvm.expect.i64(i64 %32, i64 0)
  %34 = icmp ne i64 %33, 0
  br i1 %34, label %35, label %37

35:                                               ; preds = %27
  call void (ptr, ...) @PaUtil_DebugPrint(ptr noundef @.str.224)
  %36 = load i32, ptr @paUtilErr_, align 4, !tbaa !8
  store i32 %36, ptr %4, align 4, !tbaa !8
  br label %68

37:                                               ; preds = %27
  br label %38

38:                                               ; preds = %37
  br label %39

39:                                               ; preds = %38
  br label %40

40:                                               ; preds = %39
  %41 = load ptr, ptr %5, align 8, !tbaa !38
  %42 = getelementptr inbounds nuw %struct.PaAlsaStream, ptr %41, i32 0, i32 19
  %43 = call i32 @PaAlsaStreamComponent_GetAvailableFrames(ptr noundef %42, ptr noundef %6, ptr noundef %7)
  store i32 %43, ptr @paUtilErr_, align 4, !tbaa !8
  %44 = icmp slt i32 %43, 0
  %45 = zext i1 %44 to i32
  %46 = sext i32 %45 to i64
  %47 = call i64 @llvm.expect.i64(i64 %46, i64 0)
  %48 = icmp ne i64 %47, 0
  br i1 %48, label %49, label %51

49:                                               ; preds = %40
  call void (ptr, ...) @PaUtil_DebugPrint(ptr noundef @.str.225)
  %50 = load i32, ptr @paUtilErr_, align 4, !tbaa !8
  store i32 %50, ptr %4, align 4, !tbaa !8
  br label %68

51:                                               ; preds = %40
  br label %52

52:                                               ; preds = %51
  br label %53

53:                                               ; preds = %52
  %54 = load i32, ptr %7, align 4, !tbaa !8
  %55 = icmp ne i32 %54, 0
  br i1 %55, label %56, label %65

56:                                               ; preds = %53
  br label %57

57:                                               ; preds = %56
  store i32 -9981, ptr @paUtilErr_, align 4, !tbaa !8
  %58 = call i64 @llvm.expect.i64(i64 1, i64 0)
  %59 = icmp ne i64 %58, 0
  br i1 %59, label %60, label %62

60:                                               ; preds = %57
  call void (ptr, ...) @PaUtil_DebugPrint(ptr noundef @.str.226)
  %61 = load i32, ptr @paUtilErr_, align 4, !tbaa !8
  store i32 %61, ptr %4, align 4, !tbaa !8
  br label %68

62:                                               ; preds = %57
  br label %63

63:                                               ; preds = %62
  br label %64

64:                                               ; preds = %63
  br label %65

65:                                               ; preds = %64, %53
  br label %66

66:                                               ; preds = %65, %23
  %67 = load i64, ptr %6, align 8, !tbaa !37
  store i64 %67, ptr %2, align 8
  store i32 1, ptr %8, align 4
  br label %71

68:                                               ; preds = %60, %49, %35, %19
  %69 = load i32, ptr %4, align 4, !tbaa !8
  %70 = sext i32 %69 to i64
  store i64 %70, ptr %2, align 8
  store i32 1, ptr %8, align 4
  br label %71

71:                                               ; preds = %68, %66
  call void @llvm.lifetime.end.p0(i64 4, ptr %7) #17
  call void @llvm.lifetime.end.p0(i64 8, ptr %6) #17
  call void @llvm.lifetime.end.p0(i64 8, ptr %5) #17
  call void @llvm.lifetime.end.p0(i64 4, ptr %4) #17
  %72 = load i64, ptr %2, align 8
  ret i64 %72
}