; Function Attrs: nounwind uwtable
define internal i64 @GetStreamReadAvailable(ptr noundef %0) #2 {
  %2 = getelementptr i8, ptr %0, i64 704
  %.val = load ptr, ptr %2, align 8, !tbaa !147
  %3 = tail call i64 @snd_pcm_avail_update(ptr noundef %.val) #25, !callees !148
  %4 = icmp eq i64 %3, -32
  br i1 %4, label %11, label %5

5:                                                ; preds = %1
  %6 = trunc i64 %3 to i32
  %7 = icmp slt i32 %6, 0
  br i1 %7, label %8, label %.thread, !prof !9

.thread:                                          ; preds = %5
  store i32 0, ptr @paUtilErr_, align 4, !tbaa !3
  br label %27

8:                                                ; preds = %5
  %9 = tail call i64 @pthread_self() #28
  %10 = load i64, ptr @paUnixMainThread, align 8, !tbaa !108
  %.not.i = icmp eq i64 %9, %10
  br i1 %.not.i, label %.sink.split.sink.split.sink.split, label %.sink.split.sink.split

11:                                               ; preds = %1
  store i32 0, ptr @paUtilErr_, align 4, !tbaa !3
  %12 = tail call fastcc i32 @PaAlsaStream_HandleXrun(ptr noundef nonnull %0)
  store i32 %12, ptr @paUtilErr_, align 4, !tbaa !3
  %13 = icmp slt i32 %12, 0
  br i1 %13, label %25, label %14, !prof !9

14:                                               ; preds = %11
  %.val7 = load ptr, ptr %2, align 8, !tbaa !147
  %15 = tail call i64 @snd_pcm_avail_update(ptr noundef %.val7) #25, !callees !148
  %16 = icmp eq i64 %15, -32
  br i1 %16, label %.sink.split, label %17

17:                                               ; preds = %14
  %18 = trunc i64 %15 to i32
  %19 = icmp slt i32 %18, 0
  br i1 %19, label %20, label %.thread33, !prof !9

.thread33:                                        ; preds = %17
  store i32 0, ptr @paUtilErr_, align 4, !tbaa !3
  br label %27

20:                                               ; preds = %17
  %21 = tail call i64 @pthread_self() #28
  %22 = load i64, ptr @paUnixMainThread, align 8, !tbaa !108
  %.not.i11 = icmp eq i64 %21, %22
  br i1 %.not.i11, label %.sink.split.sink.split.sink.split, label %.sink.split.sink.split

.sink.split.sink.split.sink.split:                ; preds = %20, %8
  %.sink40 = phi i64 [ %3, %8 ], [ %15, %20 ]
  %.sink39 = phi i32 [ %6, %8 ], [ %18, %20 ]
  %.str.226.sink.ph.ph.ph = phi ptr [ @.str.223, %8 ], [ @.str.225, %20 ]
  %sext.i12 = shl i64 %.sink40, 32
  %23 = ashr exact i64 %sext.i12, 32
  %24 = tail call ptr @snd_strerror(i32 noundef %.sink39) #25
  tail call void @PaUtil_SetLastHostErrorInfo(i32 noundef 8, i64 noundef %23, ptr noundef %24) #25
  br label %.sink.split.sink.split

.sink.split.sink.split:                           ; preds = %.sink.split.sink.split.sink.split, %20, %8
  %.str.226.sink.ph.ph = phi ptr [ @.str.223, %8 ], [ @.str.225, %20 ], [ %.str.226.sink.ph.ph.ph, %.sink.split.sink.split.sink.split ]
  tail call void (ptr, ...) @PaUtil_DebugPrint(ptr noundef nonnull @.str.186) #25
  br label %.sink.split

.sink.split:                                      ; preds = %.sink.split.sink.split, %14
  %.sink = phi i32 [ -9981, %14 ], [ -9999, %.sink.split.sink.split ]
  %.str.226.sink.ph = phi ptr [ @.str.226, %14 ], [ %.str.226.sink.ph.ph, %.sink.split.sink.split ]
  store i32 %.sink, ptr @paUtilErr_, align 4, !tbaa !3
  br label %25

25:                                               ; preds = %.sink.split, %11
  %.str.226.sink = phi ptr [ @.str.224, %11 ], [ %.str.226.sink.ph, %.sink.split ]
  tail call void (ptr, ...) @PaUtil_DebugPrint(ptr noundef nonnull %.str.226.sink) #25
  %.05 = load i32, ptr @paUtilErr_, align 4, !tbaa !3
  %26 = sext i32 %.05 to i64
  br label %27

27:                                               ; preds = %.thread, %.thread33, %25
  %.0 = phi i64 [ %26, %25 ], [ %3, %.thread ], [ %15, %.thread33 ]
  ret i64 %.0
}